target datalayout = "e-m:e-p270:32:32-p271:32:32-p272:64:64-i64:64-i128:128-f80:128-n8:16:32:64-S128"
target triple = "x86_64-pc-linux-gnu"

%struct.cmsMAT3 = type { [3 x %struct.cmsVEC3] }
%struct.cmsVEC3 = type { [3 x double] }

; Function Attrs: nounwind uwtable
define internal double @RootOfLeastSquaresFitQuadraticCurve(i32 noundef %0, ptr noundef %1, ptr noundef %2) #0 {
  %4 = alloca double, align 8
  %5 = alloca i32, align 4
  %6 = alloca ptr, align 8
  %7 = alloca ptr, align 8
  %8 = alloca double, align 8
  %9 = alloca double, align 8
  %10 = alloca double, align 8
  %11 = alloca double, align 8
  %12 = alloca double, align 8
  %13 = alloca double, align 8
  %14 = alloca double, align 8
  %15 = alloca double, align 8
  %16 = alloca double, align 8
  %17 = alloca double, align 8
  %18 = alloca double, align 8
  %19 = alloca i32, align 4
  %20 = alloca %struct.cmsMAT3, align 8
  %21 = alloca %struct.cmsVEC3, align 8
  %22 = alloca %struct.cmsVEC3, align 8
  %23 = alloca double, align 8
  %24 = alloca double, align 8
  %25 = alloca double, align 8
  store i32 %0, ptr %5, align 4
  store ptr %1, ptr %6, align 8
  store ptr %2, ptr %7, align 8
  store double 0.000000e+00, ptr %8, align 8
  store double 0.000000e+00, ptr %9, align 8
  store double 0.000000e+00, ptr %10, align 8
  store double 0.000000e+00, ptr %11, align 8
  store double 0.000000e+00, ptr %12, align 8
  store double 0.000000e+00, ptr %13, align 8
  store double 0.000000e+00, ptr %14, align 8
  %26 = load i32, ptr %5, align 4
  %27 = icmp slt i32 %26, 4
  br i1 %27, label %28, label %29

28:                                               ; preds = %3
  store double 0.000000e+00, ptr %4, align 8
  br label %200

29:                                               ; preds = %3
  store i32 0, ptr %19, align 4
  br label %30

30:                                               ; preds = %79, %29
  %31 = load i32, ptr %19, align 4
  %32 = load i32, ptr %5, align 4
  %33 = icmp slt i32 %31, %32
  br i1 %33, label %34, label %82

34:                                               ; preds = %30
  %35 = load ptr, ptr %6, align 8
  %36 = load i32, ptr %19, align 4
  %37 = sext i32 %36 to i64
  %38 = getelementptr inbounds double, ptr %35, i64 %37
  %39 = load double, ptr %38, align 8
  store double %39, ptr %23, align 8
  %40 = load ptr, ptr %7, align 8
  %41 = load i32, ptr %19, align 4
  %42 = sext i32 %41 to i64
  %43 = getelementptr inbounds double, ptr %40, i64 %42
  %44 = load double, ptr %43, align 8
  store double %44, ptr %24, align 8
  %45 = load double, ptr %23, align 8
  %46 = load double, ptr %8, align 8
  %47 = fadd double %46, %45
  store double %47, ptr %8, align 8
  %48 = load double, ptr %23, align 8
  %49 = load double, ptr %23, align 8
  %50 = load double, ptr %9, align 8
  %51 = call double @llvm.fmuladd.f64(double %48, double %49, double %50)
  store double %51, ptr %9, align 8
  %52 = load double, ptr %23, align 8
  %53 = load double, ptr %23, align 8
  %54 = fmul double %52, %53
  %55 = load double, ptr %23, align 8
  %56 = load double, ptr %10, align 8
  %57 = call double @llvm.fmuladd.f64(double %54, double %55, double %56)
  store double %57, ptr %10, align 8
  %58 = load double, ptr %23, align 8
  %59 = load double, ptr %23, align 8
  %60 = fmul double %58, %59
  %61 = load double, ptr %23, align 8
  %62 = fmul double %60, %61
  %63 = load double, ptr %23, align 8
  %64 = load double, ptr %11, align 8
  %65 = call double @llvm.fmuladd.f64(double %62, double %63, double %64)
  store double %65, ptr %11, align 8
  %66 = load double, ptr %24, align 8
  %67 = load double, ptr %12, align 8
  %68 = fadd double %67, %66
  store double %68, ptr %12, align 8
  %69 = load double, ptr %24, align 8
  %70 = load double, ptr %23, align 8
  %71 = load double, ptr %13, align 8
  %72 = call double @llvm.fmuladd.f64(double %69, double %70, double %71)
  store double %72, ptr %13, align 8
  %73 = load double, ptr %24, align 8
  %74 = load double, ptr %23, align 8
  %75 = fmul double %73, %74
  %76 = load double, ptr %23, align 8
  %77 = load double, ptr %14, align 8
  %78 = call double @llvm.fmuladd.f64(double %75, double %76, double %77)
  store double %78, ptr %14, align 8
  br label %79

79:                                               ; preds = %34
  %80 = load i32, ptr %19, align 4
  %81 = add nsw i32 %80, 1
  store i32 %81, ptr %19, align 4
  br label %30, !llvm.loop !12

82:                                               ; preds = %30
  %83 = getelementptr inbounds %struct.cmsMAT3, ptr %20, i32 0, i32 0
  %84 = getelementptr inbounds [3 x %struct.cmsVEC3], ptr %83, i64 0, i64 0
  %85 = load i32, ptr %5, align 4
  %86 = sitofp i32 %85 to double
  %87 = load double, ptr %8, align 8
  %88 = load double, ptr %9, align 8
  call void @_cmsVEC3init(ptr noundef %84, double noundef %86, double noundef %87, double noundef %88)
  %89 = getelementptr inbounds %struct.cmsMAT3, ptr %20, i32 0, i32 0
  %90 = getelementptr inbounds [3 x %struct.cmsVEC3], ptr %89, i64 0, i64 1
  %91 = load double, ptr %8, align 8
  %92 = load double, ptr %9, align 8
  %93 = load double, ptr %10, align 8
  call void @_cmsVEC3init(ptr noundef %90, double noundef %91, double noundef %92, double noundef %93)
  %94 = getelementptr inbounds %struct.cmsMAT3, ptr %20, i32 0, i32 0
  %95 = getelementptr inbounds [3 x %struct.cmsVEC3], ptr %94, i64 0, i64 2
  %96 = load double, ptr %9, align 8
  %97 = load double, ptr %10, align 8
  %98 = load double, ptr %11, align 8
  call void @_cmsVEC3init(ptr noundef %95, double noundef %96, double noundef %97, double noundef %98)
  %99 = load double, ptr %12, align 8
  %100 = load double, ptr %13, align 8
  %101 = load double, ptr %14, align 8
  call void @_cmsVEC3init(ptr noundef %21, double noundef %99, double noundef %100, double noundef %101)
  %102 = call i32 @_cmsMAT3solve(ptr noundef %22, ptr noundef %20, ptr noundef %21)
  %103 = icmp ne i32 %102, 0
  br i1 %103, label %105, label %104

104:                                              ; preds = %82
  store double 0.000000e+00, ptr %4, align 8
  br label %200

105:                                              ; preds = %82
  %106 = getelementptr inbounds %struct.cmsVEC3, ptr %22, i32 0, i32 0
  %107 = getelementptr inbounds [3 x double], ptr %106, i64 0, i64 2
  %108 = load double, ptr %107, align 8
  store double %108, ptr %16, align 8
  %109 = getelementptr inbounds %struct.cmsVEC3, ptr %22, i32 0, i32 0
  %110 = getelementptr inbounds [3 x double], ptr %109, i64 0, i64 1
  %111 = load double, ptr %110, align 8
  store double %111, ptr %17, align 8
  %112 = getelementptr inbounds %struct.cmsVEC3, ptr %22, i32 0, i32 0
  %113 = getelementptr inbounds [3 x double], ptr %112, i64 0, i64 0
  %114 = load double, ptr %113, align 8
  store double %114, ptr %18, align 8
  %115 = load double, ptr %16, align 8
  %116 = call double @llvm.fabs.f64(double %115)
  %117 = fcmp olt double %116, 1.000000e-10
  br i1 %117, label %118, label %155

118:                                              ; preds = %105
  %119 = load double, ptr %17, align 8
  %120 = call double @llvm.fabs.f64(double %119)
  %121 = fcmp olt double %120, 1.000000e-10
  br i1 %121, label %122, label %123

122:                                              ; preds = %118
  store double 0.000000e+00, ptr %4, align 8
  br label %200

123:                                              ; preds = %118
  %124 = load double, ptr %18, align 8
  %125 = fneg double %124
  %126 = load double, ptr %17, align 8
  %127 = fdiv double %125, %126
  %128 = fcmp ogt double 5.000000e+01, %127
  br i1 %128, label %129, label %130

129:                                              ; preds = %123
  br label %135

130:                                              ; preds = %123
  %131 = load double, ptr %18, align 8
  %132 = fneg double %131
  %133 = load double, ptr %17, align 8
  %134 = fdiv double %132, %133
  br label %135

135:                                              ; preds = %130, %129
  %136 = phi double [ 5.000000e+01, %129 ], [ %134, %130 ]
  %137 = fcmp olt double 0.000000e+00, %136
  br i1 %137, label %138, label %139

138:                                              ; preds = %135
  br label %153

139:                                              ; preds = %135
  %140 = load double, ptr %18, align 8
  %141 = fneg double %140
  %142 = load double, ptr %17, align 8
  %143 = fdiv double %141, %142
  %144 = fcmp ogt double 5.000000e+01, %143
  br i1 %144, label %145, label %146

145:                                              ; preds = %139
  br label %151

146:                                              ; preds = %139
  %147 = load double, ptr %18, align 8
  %148 = fneg double %147
  %149 = load double, ptr %17, align 8
  %150 = fdiv double %148, %149
  br label %151

151:                                              ; preds = %146, %145
  %152 = phi double [ 5.000000e+01, %145 ], [ %150, %146 ]
  br label %153

153:                                              ; preds = %151, %138
  %154 = phi double [ 0.000000e+00, %138 ], [ %152, %151 ]
  store double %154, ptr %4, align 8
  br label %200

155:                                              ; preds = %105
  %156 = load double, ptr %17, align 8
  %157 = load double, ptr %17, align 8
  %158 = load double, ptr %16, align 8
  %159 = fmul double 4.000000e+00, %158
  %160 = load double, ptr %18, align 8
  %161 = fmul double %159, %160
  %162 = fneg double %161
  %163 = call double @llvm.fmuladd.f64(double %156, double %157, double %162)
  store double %163, ptr %15, align 8
  %164 = load double, ptr %15, align 8
  %165 = fcmp ole double %164, 0.000000e+00
  br i1 %165, label %166, label %167

166:                                              ; preds = %155
  store double 0.000000e+00, ptr %4, align 8
  br label %200

167:                                              ; preds = %155
  %168 = load double, ptr %16, align 8
  %169 = call double @llvm.fabs.f64(double %168)
  %170 = fcmp olt double %169, 1.000000e-10
  br i1 %170, label %171, label %172

171:                                              ; preds = %167
  store double 0.000000e+00, ptr %4, align 8
  br label %200

172:                                              ; preds = %167
  %173 = load double, ptr %17, align 8
  %174 = fneg double %173
  %175 = load double, ptr %15, align 8
  %176 = call double @sqrt(double noundef %175) #6
  %177 = fadd double %174, %176
  %178 = load double, ptr %16, align 8
  %179 = fmul double 2.000000e+00, %178
  %180 = fdiv double %177, %179
  store double %180, ptr %25, align 8
  %181 = load double, ptr %25, align 8
  %182 = fcmp olt double 5.000000e+01, %181
  br i1 %182, label %183, label %184

183:                                              ; preds = %172
  br label %186

184:                                              ; preds = %172
  %185 = load double, ptr %25, align 8
  br label %186

186:                                              ; preds = %184, %183
  %187 = phi double [ 5.000000e+01, %183 ], [ %185, %184 ]
  %188 = fcmp ogt double 0.000000e+00, %187
  br i1 %188, label %189, label %190

189:                                              ; preds = %186
  br label %198

190:                                              ; preds = %186
  %191 = load double, ptr %25, align 8
  %192 = fcmp olt double 5.000000e+01, %191
  br i1 %192, label %193, label %194

193:                                              ; preds = %190
  br label %196

194:                                              ; preds = %190
  %195 = load double, ptr %25, align 8
  br label %196

196:                                              ; preds = %194, %193
  %197 = phi double [ 5.000000e+01, %193 ], [ %195, %194 ]
  br label %198

198:                                              ; preds = %196, %189
  %199 = phi double [ 0.000000e+00, %189 ], [ %197, %196 ]
  store double %199, ptr %4, align 8
  br label %200

200:                                              ; preds = %198, %171, %166, %153, %122, %104, %28
  %201 = load double, ptr %4, align 8
  ret double %201
}