; Function Attrs: nounwind uwtable
define internal fastcc double @RootOfLeastSquaresFitQuadraticCurve(i32 noundef %0, ptr nocapture noundef readonly %1, ptr nocapture noundef readonly %2) unnamed_addr #0 {
  %4 = alloca %struct.cmsMAT3, align 8
  %5 = alloca %struct.cmsVEC3, align 8
  %6 = alloca %struct.cmsVEC3, align 8
  %7 = icmp slt i32 %0, 4
  br i1 %7, label %66, label %.preheader.preheader

.preheader.preheader:                             ; preds = %3
  %wide.trip.count = zext nneg i32 %0 to i64
  br label %.preheader

.preheader:                                       ; preds = %.preheader.preheader, %.preheader
  %indvars.iv = phi i64 [ 0, %.preheader.preheader ], [ %indvars.iv.next, %.preheader ]
  %.06685 = phi double [ 0.000000e+00, %.preheader.preheader ], [ %13, %.preheader ]
  %.07180 = phi double [ 0.000000e+00, %.preheader.preheader ], [ %16, %.preheader ]
  %.07378 = phi double [ 0.000000e+00, %.preheader.preheader ], [ %24, %.preheader ]
  %8 = phi <4 x double> [ zeroinitializer, %.preheader.preheader ], [ %22, %.preheader ]
  %9 = getelementptr inbounds double, ptr %1, i64 %indvars.iv
  %10 = load double, ptr %9, align 8
  %11 = getelementptr inbounds double, ptr %2, i64 %indvars.iv
  %12 = load double, ptr %11, align 8
  %13 = fadd double %.06685, %10
  %14 = fmul double %10, %10
  %15 = fmul double %10, %14
  %16 = fadd double %.07180, %12
  %17 = insertelement <4 x double> poison, double %10, i64 0
  %18 = insertelement <4 x double> %17, double %14, i64 1
  %19 = insertelement <4 x double> %18, double %15, i64 2
  %20 = insertelement <4 x double> %19, double %12, i64 3
  %21 = shufflevector <4 x double> %17, <4 x double> poison, <4 x i32> zeroinitializer
  %22 = tail call <4 x double> @llvm.fmuladd.v4f64(<4 x double> %20, <4 x double> %21, <4 x double> %8)
  %23 = fmul double %10, %12
  %24 = tail call double @llvm.fmuladd.f64(double %23, double %10, double %.07378)
  %indvars.iv.next = add nuw nsw i64 %indvars.iv, 1
  %exitcond.not = icmp eq i64 %indvars.iv.next, %wide.trip.count
  br i1 %exitcond.not, label %25, label %.preheader, !llvm.loop !12

25:                                               ; preds = %.preheader
  %26 = uitofp nneg i32 %0 to double
  %27 = extractelement <4 x double> %22, i64 0
  call void @_cmsVEC3init(ptr noundef nonnull %4, double noundef %26, double noundef %13, double noundef %27) #8
  %28 = getelementptr inbounds i8, ptr %4, i64 24
  %29 = extractelement <4 x double> %22, i64 1
  call void @_cmsVEC3init(ptr noundef nonnull %28, double noundef %13, double noundef %27, double noundef %29) #8
  %30 = getelementptr inbounds i8, ptr %4, i64 48
  %31 = extractelement <4 x double> %22, i64 2
  call void @_cmsVEC3init(ptr noundef nonnull %30, double noundef %27, double noundef %29, double noundef %31) #8
  %32 = extractelement <4 x double> %22, i64 3
  call void @_cmsVEC3init(ptr noundef nonnull %5, double noundef %16, double noundef %32, double noundef %24) #8
  %33 = call i32 @_cmsMAT3solve(ptr noundef nonnull %6, ptr noundef nonnull %4, ptr noundef nonnull %5) #8
  %.not = icmp eq i32 %33, 0
  br i1 %.not, label %66, label %34

34:                                               ; preds = %25
  %35 = getelementptr inbounds i8, ptr %6, i64 16
  %36 = load double, ptr %35, align 8
  %37 = getelementptr inbounds i8, ptr %6, i64 8
  %38 = load double, ptr %37, align 8
  %39 = load double, ptr %6, align 8
  %40 = call double @llvm.fabs.f64(double %36)
  %41 = fcmp olt double %40, 1.000000e-10
  br i1 %41, label %42, label %52

42:                                               ; preds = %34
  %43 = call double @llvm.fabs.f64(double %38)
  %44 = fcmp olt double %43, 1.000000e-10
  br i1 %44, label %66, label %45

45:                                               ; preds = %42
  %46 = fneg double %39
  %47 = fdiv double %46, %38
  %48 = fcmp olt double %47, 5.000000e+01
  %49 = select i1 %48, double 5.000000e+01, double %47
  %50 = fcmp ogt double %49, 0.000000e+00
  %51 = select i1 %50, double 0.000000e+00, double %49
  br label %66

52:                                               ; preds = %34
  %53 = fmul double %36, -4.000000e+00
  %54 = fmul double %53, %39
  %55 = call double @llvm.fmuladd.f64(double %38, double %38, double %54)
  %56 = fcmp ugt double %55, 0.000000e+00
  br i1 %56, label %57, label %66

57:                                               ; preds = %52
  %58 = call double @sqrt(double noundef %55) #8
  %59 = fsub double %58, %38
  %60 = fmul double %36, 2.000000e+00
  %61 = fdiv double %59, %60
  %62 = fcmp ogt double %61, 5.000000e+01
  %63 = select i1 %62, double 5.000000e+01, double %61
  %64 = fcmp olt double %63, 0.000000e+00
  %65 = select i1 %64, double 0.000000e+00, double %63
  br label %66

66:                                               ; preds = %52, %42, %25, %3, %57, %45
  %.0 = phi double [ %51, %45 ], [ %65, %57 ], [ 0.000000e+00, %3 ], [ 0.000000e+00, %25 ], [ 0.000000e+00, %42 ], [ 0.000000e+00, %52 ]
  ret double %.0
}